; Function Attrs: mustprogress nounwind uwtable
define noundef i64 @_ZNK7rocksdb15TableProperties22ApproximateMemoryUsageEv(ptr noundef nonnull align 8 dereferenceable(712) %0) local_unnamed_addr #3 align 2 {
  %2 = tail call i64 @malloc_usable_size(ptr noundef nonnull %0) #25
  %3 = getelementptr inbounds nuw i8, ptr %0, i64 240
  %4 = load i64, ptr %3, align 8, !tbaa !10
  %5 = getelementptr inbounds nuw i8, ptr %0, i64 272
  %6 = load i64, ptr %5, align 8, !tbaa !10
  %7 = getelementptr inbounds nuw i8, ptr %0, i64 304
  %8 = load i64, ptr %7, align 8, !tbaa !10
  %9 = getelementptr inbounds nuw i8, ptr %0, i64 336
  %10 = load i64, ptr %9, align 8, !tbaa !10
  %11 = getelementptr inbounds nuw i8, ptr %0, i64 368
  %12 = load i64, ptr %11, align 8, !tbaa !10
  %13 = getelementptr inbounds nuw i8, ptr %0, i64 400
  %14 = load i64, ptr %13, align 8, !tbaa !10
  %15 = getelementptr inbounds nuw i8, ptr %0, i64 432
  %16 = load i64, ptr %15, align 8, !tbaa !10
  %17 = getelementptr inbounds nuw i8, ptr %0, i64 464
  %18 = load i64, ptr %17, align 8, !tbaa !10
  %19 = getelementptr inbounds nuw i8, ptr %0, i64 496
  %20 = load i64, ptr %19, align 8, !tbaa !10
  %21 = getelementptr inbounds nuw i8, ptr %0, i64 528
  %22 = load i64, ptr %21, align 8, !tbaa !10
  %23 = getelementptr inbounds nuw i8, ptr %0, i64 560
  %24 = load i64, ptr %23, align 8, !tbaa !10
  %25 = add i64 %4, %2
  %26 = add i64 %25, %6
  %27 = add i64 %26, %8
  %28 = add i64 %27, %10
  %29 = add i64 %28, %12
  %30 = add i64 %29, %14
  %31 = add i64 %30, %16
  %32 = add i64 %31, %18
  %33 = add i64 %32, %20
  %34 = add i64 %33, %22
  %35 = add i64 %34, %24
  %36 = getelementptr inbounds nuw i8, ptr %0, i64 640
  %37 = load ptr, ptr %36, align 8, !tbaa !96
  %38 = getelementptr inbounds nuw i8, ptr %0, i64 624
  %.not9 = icmp eq ptr %37, %38
  br i1 %.not9, label %._crit_edge, label %.lr.ph

._crit_edge:                                      ; preds = %.lr.ph, %1
  %.0.lcssa = phi i64 [ %35, %1 ], [ %44, %.lr.ph ]
  ret i64 %.0.lcssa

.lr.ph:                                           ; preds = %1, %.lr.ph
  %.011 = phi i64 [ %44, %.lr.ph ], [ %35, %1 ]
  %.sroa.05.010 = phi ptr [ %45, %.lr.ph ], [ %37, %1 ]
  %39 = getelementptr inbounds nuw i8, ptr %.sroa.05.010, i64 40
  %40 = load i64, ptr %39, align 8, !tbaa !10
  %41 = getelementptr inbounds nuw i8, ptr %.sroa.05.010, i64 72
  %42 = load i64, ptr %41, align 8, !tbaa !10
  %43 = add i64 %40, %.011
  %44 = add i64 %43, %42
  %45 = tail call noundef ptr @_ZSt18_Rb_tree_incrementPKSt18_Rb_tree_node_base(ptr noundef %.sroa.05.010) #29
  %.not = icmp eq ptr %45, %38
  br i1 %.not, label %._crit_edge, label %.lr.ph, !llvm.loop !106
}